; Function Attrs: mustprogress uwtable
define void @_ZN7rocksdb16MutableCFOptions21RefreshDerivedOptionsEiNS_15CompactionStyleE(ptr noundef nonnull align 8 dereferenceable(560) %this, i32 noundef %num_levels, i8 noundef signext %compaction_style) local_unnamed_addr #2 align 2 personality ptr @__gxx_personality_v0 {
entry:
  %max_file_size = getelementptr inbounds i8, ptr %this, i64 536
  %conv = sext i32 %num_levels to i64
  %_M_finish.i.i = getelementptr inbounds i8, ptr %this, i64 544
  %0 = load ptr, ptr %_M_finish.i.i, align 8
  %1 = load ptr, ptr %max_file_size, align 8
  %sub.ptr.lhs.cast.i.i = ptrtoint ptr %0 to i64
  %sub.ptr.rhs.cast.i.i = ptrtoint ptr %1 to i64
  %sub.ptr.sub.i.i = sub i64 %sub.ptr.lhs.cast.i.i, %sub.ptr.rhs.cast.i.i
  %sub.ptr.div.i.i = ashr exact i64 %sub.ptr.sub.i.i, 3
  %cmp.i = icmp ult i64 %sub.ptr.div.i.i, %conv
  br i1 %cmp.i, label %if.then.i, label %if.else.i

if.then.i:                                        ; preds = %entry
  %sub.i = sub nsw i64 %conv, %sub.ptr.div.i.i
  tail call void @_ZNSt6vectorImSaImEE17_M_default_appendEm(ptr noundef nonnull align 8 dereferenceable(24) %max_file_size, i64 noundef %sub.i)
  br label %_ZNSt6vectorImSaImEE6resizeEm.exit

if.else.i:                                        ; preds = %entry
  %cmp4.i = icmp ugt i64 %sub.ptr.div.i.i, %conv
  br i1 %cmp4.i, label %if.then5.i, label %_ZNSt6vectorImSaImEE6resizeEm.exit

if.then5.i:                                       ; preds = %if.else.i
  %add.ptr.i = getelementptr inbounds i64, ptr %1, i64 %conv
  %tobool.not.i.i = icmp eq ptr %0, %add.ptr.i
  br i1 %tobool.not.i.i, label %_ZNSt6vectorImSaImEE6resizeEm.exit, label %invoke.cont.i.i

invoke.cont.i.i:                                  ; preds = %if.then5.i
  store ptr %add.ptr.i, ptr %_M_finish.i.i, align 8
  br label %_ZNSt6vectorImSaImEE6resizeEm.exit

_ZNSt6vectorImSaImEE6resizeEm.exit:               ; preds = %if.then.i, %if.else.i, %if.then5.i, %invoke.cont.i.i
  %cmp13 = icmp sgt i32 %num_levels, 0
  br i1 %cmp13, label %for.body.lr.ph, label %for.end

for.body.lr.ph:                                   ; preds = %_ZNSt6vectorImSaImEE6resizeEm.exit
  %cmp4 = icmp eq i8 %compaction_style, 1
  %target_file_size_base = getelementptr inbounds i8, ptr %this, i64 144
  %target_file_size_multiplier = getelementptr inbounds i8, ptr %this, i64 152
  %wide.trip.count20 = zext nneg i32 %num_levels to i64
  br i1 %cmp4, label %for.body, label %for.body.us

for.body.us:                                      ; preds = %for.body.lr.ph, %for.inc.us
  %indvars.iv = phi i64 [ %indvars.iv.next, %for.inc.us ], [ 0, %for.body.lr.ph ]
  %cmp7.us = icmp ugt i64 %indvars.iv, 1
  br i1 %cmp7.us, label %if.then8.us, label %if.else17.us

if.else17.us:                                     ; preds = %for.body.us
  %2 = load i64, ptr %target_file_size_base, align 8
  %3 = load ptr, ptr %max_file_size, align 8
  %add.ptr.i12.us = getelementptr inbounds i64, ptr %3, i64 %indvars.iv
  store i64 %2, ptr %add.ptr.i12.us, align 8
  br label %for.inc.us

if.then8.us:                                      ; preds = %for.body.us
  %4 = load ptr, ptr %max_file_size, align 8
  %5 = getelementptr i64, ptr %4, i64 %indvars.iv
  %add.ptr.i9.us = getelementptr i8, ptr %5, i64 -8
  %6 = load i64, ptr %add.ptr.i9.us, align 8
  %7 = load i32, ptr %target_file_size_multiplier, align 8
  %conv12.us = sitofp i32 %7 to double
  %cmp.i10.us = icmp eq i64 %6, 0
  %cmp1.i.us = icmp slt i32 %7, 1
  %or.cond.i.us = or i1 %cmp.i10.us, %cmp1.i.us
  br i1 %or.cond.i.us, label %_ZN7rocksdb21MultiplyCheckOverflowEmd.exit.us, label %if.end.i.us

if.end.i.us:                                      ; preds = %if.then8.us
  %div.i.us = udiv i64 -1, %6
  %conv.i.us = uitofp i64 %div.i.us to double
  %cmp2.i.us = fcmp olt double %conv.i.us, %conv12.us
  br i1 %cmp2.i.us, label %_ZN7rocksdb21MultiplyCheckOverflowEmd.exit.us, label %if.end4.i.us

if.end4.i.us:                                     ; preds = %if.end.i.us
  %conv5.i.us = uitofp i64 %6 to double
  %mul.i.us = fmul double %conv5.i.us, %conv12.us
  %conv6.i.us = fptoui double %mul.i.us to i64
  br label %_ZN7rocksdb21MultiplyCheckOverflowEmd.exit.us

_ZN7rocksdb21MultiplyCheckOverflowEmd.exit.us:    ; preds = %if.end4.i.us, %if.end.i.us, %if.then8.us
  %retval.0.i.us = phi i64 [ %conv6.i.us, %if.end4.i.us ], [ 0, %if.then8.us ], [ %6, %if.end.i.us ]
  store i64 %retval.0.i.us, ptr %5, align 8
  br label %for.inc.us

for.inc.us:                                       ; preds = %_ZN7rocksdb21MultiplyCheckOverflowEmd.exit.us, %if.else17.us
  %indvars.iv.next = add nuw nsw i64 %indvars.iv, 1
  %exitcond.not = icmp eq i64 %indvars.iv.next, %wide.trip.count20
  br i1 %exitcond.not, label %for.end, label %for.body.us, !llvm.loop !42

for.body:                                         ; preds = %for.body.lr.ph, %for.inc
  %indvars.iv17 = phi i64 [ %indvars.iv.next18, %for.inc ], [ 0, %for.body.lr.ph ]
  switch i64 %indvars.iv17, label %if.then8 [
    i64 0, label %if.then
    i64 1, label %if.else17
  ]

if.then:                                          ; preds = %for.body
  %8 = load ptr, ptr %max_file_size, align 8
  store i64 -1, ptr %8, align 8
  br label %for.inc

if.then8:                                         ; preds = %for.body
  %9 = load ptr, ptr %max_file_size, align 8
  %10 = getelementptr i64, ptr %9, i64 %indvars.iv17
  %add.ptr.i9 = getelementptr i8, ptr %10, i64 -8
  %11 = load i64, ptr %add.ptr.i9, align 8
  %12 = load i32, ptr %target_file_size_multiplier, align 8
  %conv12 = sitofp i32 %12 to double
  %cmp.i10 = icmp eq i64 %11, 0
  %cmp1.i = icmp slt i32 %12, 1
  %or.cond.i = or i1 %cmp.i10, %cmp1.i
  br i1 %or.cond.i, label %_ZN7rocksdb21MultiplyCheckOverflowEmd.exit, label %if.end.i

if.end.i:                                         ; preds = %if.then8
  %div.i = udiv i64 -1, %11
  %conv.i = uitofp i64 %div.i to double
  %cmp2.i = fcmp olt double %conv.i, %conv12
  br i1 %cmp2.i, label %_ZN7rocksdb21MultiplyCheckOverflowEmd.exit, label %if.end4.i

if.end4.i:                                        ; preds = %if.end.i
  %conv5.i = uitofp i64 %11 to double
  %mul.i = fmul double %conv5.i, %conv12
  %conv6.i = fptoui double %mul.i to i64
  br label %_ZN7rocksdb21MultiplyCheckOverflowEmd.exit

_ZN7rocksdb21MultiplyCheckOverflowEmd.exit:       ; preds = %if.then8, %if.end.i, %if.end4.i
  %retval.0.i = phi i64 [ %conv6.i, %if.end4.i ], [ 0, %if.then8 ], [ %11, %if.end.i ]
  store i64 %retval.0.i, ptr %10, align 8
  br label %for.inc

if.else17:                                        ; preds = %for.body
  %13 = load i64, ptr %target_file_size_base, align 8
  %14 = load ptr, ptr %max_file_size, align 8
  %add.ptr.i12 = getelementptr inbounds i8, ptr %14, i64 8
  store i64 %13, ptr %add.ptr.i12, align 8
  br label %for.inc

for.inc:                                          ; preds = %if.then, %if.else17, %_ZN7rocksdb21MultiplyCheckOverflowEmd.exit
  %indvars.iv.next18 = add nuw nsw i64 %indvars.iv17, 1
  %exitcond21.not = icmp eq i64 %indvars.iv.next18, %wide.trip.count20
  br i1 %exitcond21.not, label %for.end, label %for.body, !llvm.loop !42

for.end:                                          ; preds = %for.inc.us, %for.inc, %_ZNSt6vectorImSaImEE6resizeEm.exit
  ret void
}